Certificate:
    Data:
        Version: 3 (0x2)
        Serial Number: 5 (0x5)
    Signature Algorithm: sha256WithRSAEncryption
        Issuer: CN=FreePBX
        Validity
            Not Before: Oct 18 00:07:21 2015 GMT
            Not After : Oct 15 00:07:21 2025 GMT
        Subject: CN=client5
        Subject Public Key Info:
            Public Key Algorithm: rsaEncryption
                Public-Key: (2048 bit)
                Modulus:
                    00:b0:65:25:86:9d:18:18:90:29:4c:b6:38:01:43:
                    07:40:7e:64:10:a7:48:a1:56:d8:7a:9b:a2:96:10:
                    51:05:ae:0a:29:87:c6:39:c2:f5:b4:87:d9:8a:ac:
                    c1:cd:38:96:85:e0:b7:82:95:c4:52:bf:36:54:2a:
                    21:82:48:46:a4:d7:d6:6f:fc:55:c2:54:fd:78:22:
                    c0:ad:04:0e:11:6a:a1:c5:f7:a1:26:69:30:7b:d7:
                    03:b4:6a:3c:79:54:49:62:e6:02:f7:2f:53:c8:97:
                    15:72:db:4f:10:27:91:1e:7a:c4:09:a0:c4:b4:c0:
                    64:f9:05:21:f4:4d:0e:08:09:83:ee:30:73:26:e4:
                    82:cd:c7:dd:b8:6d:62:c6:8b:0d:8c:d9:9f:33:9c:
                    f2:05:db:18:09:55:b5:a4:f5:da:1d:48:2e:ed:d4:
                    06:f6:f7:42:17:a9:8c:2c:54:83:f5:a2:b7:ef:57:
                    64:cd:ff:69:86:61:9f:df:fb:2a:98:29:b4:16:38:
                    cb:93:1c:c4:d1:7e:64:b8:47:26:9b:36:88:c5:69:
                    3d:fb:52:82:b2:71:c2:c4:26:4b:2a:19:6e:ff:2d:
                    c1:2c:c4:24:51:1a:58:72:ce:5c:4e:76:b2:47:b2:
                    d7:fd:20:53:b7:f2:ae:b3:d3:e3:88:d8:0f:27:15:
                    58:89
                Exponent: 65537 (0x10001)
        X509v3 extensions:
            X509v3 Basic Constraints: 
                CA:FALSE
            X509v3 Subject Key Identifier: 
                E4:E0:EA:87:C5:88:A8:10:3D:11:4F:18:C8:63:D4:BF:F3:69:F7:6C
            X509v3 Authority Key Identifier: 
                keyid:31:53:62:B2:A4:E1:50:20:7F:19:B8:DF:E0:11:1B:69:69:DF:47:32
                DirName:/CN=FreePBX
                serial:BF:24:A5:E5:AD:E5:F3:90

            X509v3 Extended Key Usage: 
                TLS Web Client Authentication
            X509v3 Key Usage: 
                Digital Signature
    Signature Algorithm: sha256WithRSAEncryption
         1e:ae:50:ad:89:98:fa:d9:2e:17:9a:dd:bb:4e:0a:fd:84:5a:
         e2:b2:9f:2c:fb:67:e2:f8:1f:90:f2:df:4f:ce:0f:9c:e4:56:
         f9:1b:66:94:33:8f:2c:8c:fc:ae:61:31:4b:df:87:1e:35:71:
         2e:cb:08:92:2b:52:90:0e:66:96:a7:e1:be:30:92:5b:27:b0:
         4c:29:6a:d7:9a:91:89:23:d9:72:d5:39:84:cb:c3:d2:d1:2b:
         2a:54:0b:5a:fc:7e:3f:f9:34:be:80:04:12:b0:e6:64:47:2d:
         02:45:27:3b:78:9b:8e:2a:c8:2b:65:7f:2f:ae:db:49:44:55:
         f2:b7:33:a5:40:7c:0f:82:02:1d:55:54:a5:f5:fe:b1:db:58:
         fd:2e:fb:9f:b9:22:54:13:e1:26:89:83:3b:b8:fd:54:30:67:
         dc:5b:5e:84:2a:9d:ce:77:4b:ce:c4:c8:fb:72:8c:e4:19:83:
         a4:36:01:4e:70:5e:4c:8e:59:5c:93:d7:6b:6f:c3:a6:c1:c0:
         e9:46:3b:93:0c:3d:d1:e9:b7:ec:65:b3:13:dd:b6:97:e0:c3:
         c9:7b:82:32:86:d6:6b:19:56:a4:d6:74:17:e2:36:08:96:4a:
         47:34:b0:74:97:97:5d:d9:03:22:0c:a7:bc:dc:45:9e:a5:e9:
         b7:fc:21:0a
-----BEGIN CERTIFICATE-----
MIIDMzCCAhugAwIBAgIBBTANBgkqhkiG9w0BAQsFADASMRAwDgYDVQQDEwdGcmVl
UEJYMB4XDTE1MTAxODAwMDcyMVoXDTI1MTAxNTAwMDcyMVowEjEQMA4GA1UEAxMH
Y2xpZW50NTCCASIwDQYJKoZIhvcNAQEBBQADggEPADCCAQoCggEBALBlJYadGBiQ
KUy2OAFDB0B+ZBCnSKFW2HqbopYQUQWuCimHxjnC9bSH2Yqswc04loXgt4KVxFK/
NlQqIYJIRqTX1m/8VcJU/XgiwK0EDhFqocX3oSZpMHvXA7RqPHlUSWLmAvcvU8iX
FXLbTxAnkR56xAmgxLTAZPkFIfRNDggJg+4wcybkgs3H3bhtYsaLDYzZnzOc8gXb
GAlVtaT12h1ILu3UBvb3QhepjCxUg/Wit+9XZM3/aYZhn9/7KpgptBY4y5McxNF+
ZLhHJps2iMVpPftSgrJxwsQmSyoZbv8twSzEJFEaWHLOXE52skey1/0gU7fyrrPT
44jYDycVWIkCAwEAAaOBkzCBkDAJBgNVHRMEAjAAMB0GA1UdDgQWBBTk4OqHxYio
ED0RTxjIY9S/82n3bDBCBgNVHSMEOzA5gBQxU2KypOFQIH8ZuN/gERtpad9HMqEW
pBQwEjEQMA4GA1UEAxMHRnJlZVBCWIIJAL8kpeWt5fOQMBMGA1UdJQQMMAoGCCsG
AQUFBwMCMAsGA1UdDwQEAwIHgDANBgkqhkiG9w0BAQsFAAOCAQEAHq5QrYmY+tku
F5rdu04K/YRa4rKfLPtn4vgfkPLfT84PnORW+RtmlDOPLIz8rmExS9+HHjVxLssI
kitSkA5mlqfhvjCSWyewTClq15qRiSPZctU5hMvD0tErKlQLWvx+P/k0voAEErDm
ZEctAkUnO3ibjirIK2V/L67bSURV8rczpUB8D4ICHVVUpfX+sdtY/S77n7kiVBPh
JomDO7j9VDBn3FtehCqdzndLzsTI+3KM5BmDpDYBTnBeTI5ZXJPXa2/DpsHA6UY7
kww90em37GWzE922l+DDyXuCMobWaxlWpNZ0F+I2CJZKRzSwdJeXXdkDIgynvNxF
nqXpt/whCg==
-----END CERTIFICATE-----
